; Function Attrs: mustprogress nofree norecurse nosync nounwind willreturn memory(argmem: readwrite) uwtable
define dso_local void @Curl_init_CONNECT(ptr noundef captures(none) initializes((4392, 4408)) %0) local_unnamed_addr #3 {
  %2 = getelementptr inbounds nuw i8, ptr %0, i64 592
  %3 = load ptr, ptr %2, align 8, !tbaa !120
  %4 = getelementptr inbounds nuw i8, ptr %0, i64 4392
  store ptr %3, ptr %4, align 8, !tbaa !121
  %5 = getelementptr inbounds nuw i8, ptr %0, i64 488
  %6 = load ptr, ptr %5, align 8, !tbaa !122
  %7 = getelementptr inbounds nuw i8, ptr %0, i64 4400
  store ptr %6, ptr %7, align 8, !tbaa !123
  %8 = getelementptr inbounds nuw i8, ptr %0, i64 4874
  %9 = load i8, ptr %8, align 2, !tbaa !124
  %10 = icmp eq i8 %9, 4
  %11 = getelementptr inbounds nuw i8, ptr %0, i64 4876
  %12 = load i32, ptr %11, align 4
  %13 = select i1 %10, i32 524288, i32 0
  %14 = and i32 %12, -524289
  %15 = or disjoint i32 %14, %13
  store i32 %15, ptr %11, align 4
  ret void
}